; Function Attrs: nounwind uwtable
define zeroext i8 @Java_java_lang_Class_isAssignableFrom(ptr noundef %0, ptr noundef %1, ptr noundef %2) local_unnamed_addr #0 {
  %4 = icmp eq ptr %2, null
  br i1 %4, label %5, label %6

5:                                                ; preds = %3
  tail call void @JNU_ThrowNullPointerException(ptr noundef %0, ptr noundef null) #4
  br label %11

6:                                                ; preds = %3
  %7 = load ptr, ptr %0, align 8
  %8 = getelementptr inbounds i8, ptr %7, i64 88
  %9 = load ptr, ptr %8, align 8
  %10 = tail call zeroext i8 %9(ptr noundef nonnull %0, ptr noundef nonnull %2, ptr noundef %1) #4
  br label %11

11:                                               ; preds = %6, %5
  %.0 = phi i8 [ 0, %5 ], [ %10, %6 ]
  ret i8 %.0
}